; Function Attrs: null_pointer_is_valid sspstrong uwtable
define internal noundef i32 @dissect_elink_hc_interface_counters(ptr readnone captures(none) %0, ptr noundef %1, ptr readnone captures(none) %2, ptr noundef %3, i32 noundef %4, i32 %5) #0 {
  %7 = load i32, ptr @hf_elink_hc_icount_in_octets, align 4
  %8 = tail call ptr @proto_tree_add_item(ptr noundef %1, i32 noundef %7, ptr noundef %3, i32 noundef %4, i32 noundef 8, i32 noundef -2147483648)
  %9 = load i32, ptr @hf_elink_hc_icount_in_ucast, align 4
  %10 = add i32 %4, 8
  %11 = tail call ptr @proto_tree_add_item(ptr noundef %1, i32 noundef %9, ptr noundef %3, i32 noundef %10, i32 noundef 8, i32 noundef -2147483648)
  %12 = load i32, ptr @hf_elink_hc_icount_in_mcast, align 4
  %13 = add i32 %4, 16
  %14 = tail call ptr @proto_tree_add_item(ptr noundef %1, i32 noundef %12, ptr noundef %3, i32 noundef %13, i32 noundef 8, i32 noundef -2147483648)
  %15 = load i32, ptr @hf_elink_hc_icount_in_broadcast, align 4
  %16 = add i32 %4, 24
  %17 = tail call ptr @proto_tree_add_item(ptr noundef %1, i32 noundef %15, ptr noundef %3, i32 noundef %16, i32 noundef 8, i32 noundef -2147483648)
  %18 = load i32, ptr @hf_elink_hc_icount_out_octets, align 4
  %19 = add i32 %4, 32
  %20 = tail call ptr @proto_tree_add_item(ptr noundef %1, i32 noundef %18, ptr noundef %3, i32 noundef %19, i32 noundef 8, i32 noundef -2147483648)
  %21 = load i32, ptr @hf_elink_hc_icount_out_ucast, align 4
  %22 = add i32 %4, 40
  %23 = tail call ptr @proto_tree_add_item(ptr noundef %1, i32 noundef %21, ptr noundef %3, i32 noundef %22, i32 noundef 8, i32 noundef -2147483648)
  %24 = load i32, ptr @hf_elink_hc_icount_out_mcast, align 4
  %25 = add i32 %4, 48
  %26 = tail call ptr @proto_tree_add_item(ptr noundef %1, i32 noundef %24, ptr noundef %3, i32 noundef %25, i32 noundef 8, i32 noundef -2147483648)
  %27 = load i32, ptr @hf_elink_hc_icount_out_broadcast, align 4
  %28 = add i32 %4, 56
  %29 = tail call ptr @proto_tree_add_item(ptr noundef %1, i32 noundef %27, ptr noundef %3, i32 noundef %28, i32 noundef 8, i32 noundef -2147483648)
  ret i32 64
}